target datalayout = "e-m:e-p270:32:32-p271:32:32-p272:64:64-i64:64-i128:128-f80:128-n8:16:32:64-S128"
target triple = "x86_64-pc-linux-gnu"

%struct._object = type { %union.anon, ptr }
%union.anon = type { i64 }

@_Py_NoneStruct = external global %struct._object, align 8
@.str.38 = private unnamed_addr constant [3 x i8] c"OO\00", align 1

; Function Attrs: nounwind uwtable
define internal ptr @number_inplacefloordivide(ptr noundef %0, ptr noundef %1) #0 {
  %3 = alloca ptr, align 8
  %4 = alloca ptr, align 8
  %5 = alloca ptr, align 8
  %6 = alloca ptr, align 8
  %7 = alloca ptr, align 8
  %8 = alloca i32, align 4
  store ptr %0, ptr %4, align 8, !tbaa !3
  store ptr %1, ptr %5, align 8, !tbaa !3
  call void @llvm.lifetime.start.p0(i64 8, ptr %6) #3
  call void @llvm.lifetime.start.p0(i64 8, ptr %7) #3
  %9 = load ptr, ptr %5, align 8, !tbaa !3
  %10 = call i32 (ptr, ptr, ...) @PyArg_ParseTuple(ptr noundef %9, ptr noundef @.str.38, ptr noundef %6, ptr noundef %7)
  %11 = icmp ne i32 %10, 0
  br i1 %11, label %13, label %12

12:                                               ; preds = %2
  store ptr null, ptr %3, align 8
  store i32 1, ptr %8, align 4
  br label %31

13:                                               ; preds = %2
  br label %14

14:                                               ; preds = %13
  %15 = load ptr, ptr %6, align 8, !tbaa !3
  %16 = icmp eq ptr %15, @_Py_NoneStruct
  br i1 %16, label %17, label %18

17:                                               ; preds = %14
  store ptr null, ptr %6, align 8, !tbaa !3
  br label %18

18:                                               ; preds = %17, %14
  br label %19

19:                                               ; preds = %18
  br label %20

20:                                               ; preds = %19
  br label %21

21:                                               ; preds = %20
  %22 = load ptr, ptr %7, align 8, !tbaa !3
  %23 = icmp eq ptr %22, @_Py_NoneStruct
  br i1 %23, label %24, label %25

24:                                               ; preds = %21
  store ptr null, ptr %7, align 8, !tbaa !3
  br label %25

25:                                               ; preds = %24, %21
  br label %26

26:                                               ; preds = %25
  br label %27

27:                                               ; preds = %26
  %28 = load ptr, ptr %6, align 8, !tbaa !3
  %29 = load ptr, ptr %7, align 8, !tbaa !3
  %30 = call ptr @PyNumber_InPlaceFloorDivide(ptr noundef %28, ptr noundef %29)
  store ptr %30, ptr %3, align 8
  store i32 1, ptr %8, align 4
  br label %31

31:                                               ; preds = %27, %12
  call void @llvm.lifetime.end.p0(i64 8, ptr %7) #3
  call void @llvm.lifetime.end.p0(i64 8, ptr %6) #3
  %32 = load ptr, ptr %3, align 8
  ret ptr %32
}